; Function Attrs: nounwind uwtable
define void @avio_wl24(ptr noundef captures(none) %0, i32 noundef %1) local_unnamed_addr #3 {
  %3 = trunc i32 %1 to i8
  %4 = getelementptr inbounds nuw i8, ptr %0, i64 24
  %5 = load ptr, ptr %4, align 8, !tbaa !16
  %6 = getelementptr inbounds nuw i8, ptr %5, i64 1
  store ptr %6, ptr %4, align 8, !tbaa !16
  store i8 %3, ptr %5, align 1, !tbaa !33
  %7 = load ptr, ptr %4, align 8, !tbaa !16
  %8 = getelementptr inbounds nuw i8, ptr %0, i64 32
  %9 = load ptr, ptr %8, align 8, !tbaa !19
  %.not.i.i = icmp ult ptr %7, %9
  br i1 %.not.i.i, label %avio_w8.exit.i, label %10

10:                                               ; preds = %2
  tail call fastcc void @flush_buffer(ptr noundef nonnull %0)
  %.pre.i = load ptr, ptr %4, align 8, !tbaa !16
  br label %avio_w8.exit.i

avio_w8.exit.i:                                   ; preds = %10, %2
  %11 = phi ptr [ %7, %2 ], [ %.pre.i, %10 ]
  %12 = lshr i32 %1, 8
  %13 = trunc i32 %12 to i8
  %14 = getelementptr inbounds nuw i8, ptr %11, i64 1
  store ptr %14, ptr %4, align 8, !tbaa !16
  store i8 %13, ptr %11, align 1, !tbaa !33
  %15 = load ptr, ptr %4, align 8, !tbaa !16
  %16 = load ptr, ptr %8, align 8, !tbaa !19
  %.not.i3.i = icmp ult ptr %15, %16
  br i1 %.not.i3.i, label %avio_wl16.exit, label %17

17:                                               ; preds = %avio_w8.exit.i
  tail call fastcc void @flush_buffer(ptr noundef nonnull %0)
  %.pre = load ptr, ptr %4, align 8, !tbaa !16
  br label %avio_wl16.exit

avio_wl16.exit:                                   ; preds = %avio_w8.exit.i, %17
  %18 = phi ptr [ %15, %avio_w8.exit.i ], [ %.pre, %17 ]
  %19 = lshr i32 %1, 16
  %20 = trunc i32 %19 to i8
  %21 = getelementptr inbounds nuw i8, ptr %18, i64 1
  store ptr %21, ptr %4, align 8, !tbaa !16
  store i8 %20, ptr %18, align 1, !tbaa !33
  %22 = load ptr, ptr %4, align 8, !tbaa !16
  %23 = load ptr, ptr %8, align 8, !tbaa !19
  %.not.i = icmp ult ptr %22, %23
  br i1 %.not.i, label %avio_w8.exit, label %24

24:                                               ; preds = %avio_wl16.exit
  tail call fastcc void @flush_buffer(ptr noundef nonnull %0)
  br label %avio_w8.exit

avio_w8.exit:                                     ; preds = %avio_wl16.exit, %24
  ret void
}